target datalayout = "e-m:e-p270:32:32-p271:32:32-p272:64:64-i64:64-i128:128-f80:128-n8:16:32:64-S128"
target triple = "x86_64-pc-linux-gnu"

%struct.SDL_PixelFormatDetails = type { i32, i8, i8, [2 x i8], i32, i32, i32, i32, i8, i8, i8, i8, i8, i8, i8, i8 }

@SDL_expand_byte = external global [9 x ptr], align 16

; Function Attrs: nounwind uwtable
define internal i32 @uncopy_transl_16(ptr noundef %0, ptr noundef %1, i32 noundef %2, ptr noundef %3, ptr noundef %4) #0 {
  %6 = alloca ptr, align 8
  %7 = alloca ptr, align 8
  %8 = alloca i32, align 4
  %9 = alloca ptr, align 8
  %10 = alloca ptr, align 8
  %11 = alloca i32, align 4
  %12 = alloca ptr, align 8
  %13 = alloca i32, align 4
  %14 = alloca i32, align 4
  %15 = alloca i32, align 4
  %16 = alloca i32, align 4
  %17 = alloca i32, align 4
  store ptr %0, ptr %6, align 8
  store ptr %1, ptr %7, align 8
  store i32 %2, ptr %8, align 4
  store ptr %3, ptr %9, align 8
  store ptr %4, ptr %10, align 8
  call void @llvm.lifetime.start.p0(i64 4, ptr %11) #8
  call void @llvm.lifetime.start.p0(i64 8, ptr %12) #8
  %18 = load ptr, ptr %7, align 8
  store ptr %18, ptr %12, align 8
  store i32 0, ptr %11, align 4
  br label %19

19:                                               ; preds = %149, %5
  %20 = load i32, ptr %11, align 4
  %21 = load i32, ptr %8, align 4
  %22 = icmp slt i32 %20, %21
  br i1 %22, label %23, label %152

23:                                               ; preds = %19
  call void @llvm.lifetime.start.p0(i64 4, ptr %13) #8
  call void @llvm.lifetime.start.p0(i64 4, ptr %14) #8
  call void @llvm.lifetime.start.p0(i64 4, ptr %15) #8
  call void @llvm.lifetime.start.p0(i64 4, ptr %16) #8
  call void @llvm.lifetime.start.p0(i64 4, ptr %17) #8
  %24 = load ptr, ptr %12, align 8
  %25 = getelementptr inbounds nuw i32, ptr %24, i32 1
  store ptr %25, ptr %12, align 8
  %26 = load i32, ptr %24, align 4
  store i32 %26, ptr %17, align 4
  %27 = load i32, ptr %17, align 4
  %28 = and i32 %27, 992
  %29 = lshr i32 %28, 2
  store i32 %29, ptr %16, align 4
  %30 = load i32, ptr %17, align 4
  %31 = and i32 %30, -993
  %32 = load i32, ptr %17, align 4
  %33 = lshr i32 %32, 16
  %34 = or i32 %31, %33
  store i32 %34, ptr %17, align 4
  %35 = load ptr, ptr %9, align 8
  %36 = getelementptr inbounds nuw %struct.SDL_PixelFormatDetails, ptr %35, i32 0, i32 8
  %37 = load i8, ptr %36, align 4
  %38 = zext i8 %37 to i64
  %39 = getelementptr inbounds nuw [9 x ptr], ptr @SDL_expand_byte, i64 0, i64 %38
  %40 = load ptr, ptr %39, align 8
  %41 = load i32, ptr %17, align 4
  %42 = load ptr, ptr %9, align 8
  %43 = getelementptr inbounds nuw %struct.SDL_PixelFormatDetails, ptr %42, i32 0, i32 4
  %44 = load i32, ptr %43, align 4
  %45 = and i32 %41, %44
  %46 = load ptr, ptr %9, align 8
  %47 = getelementptr inbounds nuw %struct.SDL_PixelFormatDetails, ptr %46, i32 0, i32 12
  %48 = load i8, ptr %47, align 4
  %49 = zext i8 %48 to i32
  %50 = lshr i32 %45, %49
  %51 = zext i32 %50 to i64
  %52 = getelementptr inbounds nuw i8, ptr %40, i64 %51
  %53 = load i8, ptr %52, align 1
  %54 = zext i8 %53 to i32
  store i32 %54, ptr %13, align 4
  %55 = load ptr, ptr %9, align 8
  %56 = getelementptr inbounds nuw %struct.SDL_PixelFormatDetails, ptr %55, i32 0, i32 9
  %57 = load i8, ptr %56, align 1
  %58 = zext i8 %57 to i64
  %59 = getelementptr inbounds nuw [9 x ptr], ptr @SDL_expand_byte, i64 0, i64 %58
  %60 = load ptr, ptr %59, align 8
  %61 = load i32, ptr %17, align 4
  %62 = load ptr, ptr %9, align 8
  %63 = getelementptr inbounds nuw %struct.SDL_PixelFormatDetails, ptr %62, i32 0, i32 5
  %64 = load i32, ptr %63, align 4
  %65 = and i32 %61, %64
  %66 = load ptr, ptr %9, align 8
  %67 = getelementptr inbounds nuw %struct.SDL_PixelFormatDetails, ptr %66, i32 0, i32 13
  %68 = load i8, ptr %67, align 1
  %69 = zext i8 %68 to i32
  %70 = lshr i32 %65, %69
  %71 = zext i32 %70 to i64
  %72 = getelementptr inbounds nuw i8, ptr %60, i64 %71
  %73 = load i8, ptr %72, align 1
  %74 = zext i8 %73 to i32
  store i32 %74, ptr %14, align 4
  %75 = load ptr, ptr %9, align 8
  %76 = getelementptr inbounds nuw %struct.SDL_PixelFormatDetails, ptr %75, i32 0, i32 10
  %77 = load i8, ptr %76, align 2
  %78 = zext i8 %77 to i64
  %79 = getelementptr inbounds nuw [9 x ptr], ptr @SDL_expand_byte, i64 0, i64 %78
  %80 = load ptr, ptr %79, align 8
  %81 = load i32, ptr %17, align 4
  %82 = load ptr, ptr %9, align 8
  %83 = getelementptr inbounds nuw %struct.SDL_PixelFormatDetails, ptr %82, i32 0, i32 6
  %84 = load i32, ptr %83, align 4
  %85 = and i32 %81, %84
  %86 = load ptr, ptr %9, align 8
  %87 = getelementptr inbounds nuw %struct.SDL_PixelFormatDetails, ptr %86, i32 0, i32 14
  %88 = load i8, ptr %87, align 2
  %89 = zext i8 %88 to i32
  %90 = lshr i32 %85, %89
  %91 = zext i32 %90 to i64
  %92 = getelementptr inbounds nuw i8, ptr %80, i64 %91
  %93 = load i8, ptr %92, align 1
  %94 = zext i8 %93 to i32
  store i32 %94, ptr %15, align 4
  %95 = load i32, ptr %13, align 4
  %96 = load ptr, ptr %10, align 8
  %97 = getelementptr inbounds nuw %struct.SDL_PixelFormatDetails, ptr %96, i32 0, i32 8
  %98 = load i8, ptr %97, align 4
  %99 = zext i8 %98 to i32
  %100 = sub nsw i32 8, %99
  %101 = lshr i32 %95, %100
  %102 = load ptr, ptr %10, align 8
  %103 = getelementptr inbounds nuw %struct.SDL_PixelFormatDetails, ptr %102, i32 0, i32 12
  %104 = load i8, ptr %103, align 4
  %105 = zext i8 %104 to i32
  %106 = shl i32 %101, %105
  %107 = load i32, ptr %14, align 4
  %108 = load ptr, ptr %10, align 8
  %109 = getelementptr inbounds nuw %struct.SDL_PixelFormatDetails, ptr %108, i32 0, i32 9
  %110 = load i8, ptr %109, align 1
  %111 = zext i8 %110 to i32
  %112 = sub nsw i32 8, %111
  %113 = lshr i32 %107, %112
  %114 = load ptr, ptr %10, align 8
  %115 = getelementptr inbounds nuw %struct.SDL_PixelFormatDetails, ptr %114, i32 0, i32 13
  %116 = load i8, ptr %115, align 1
  %117 = zext i8 %116 to i32
  %118 = shl i32 %113, %117
  %119 = or i32 %106, %118
  %120 = load i32, ptr %15, align 4
  %121 = load ptr, ptr %10, align 8
  %122 = getelementptr inbounds nuw %struct.SDL_PixelFormatDetails, ptr %121, i32 0, i32 10
  %123 = load i8, ptr %122, align 2
  %124 = zext i8 %123 to i32
  %125 = sub nsw i32 8, %124
  %126 = lshr i32 %120, %125
  %127 = load ptr, ptr %10, align 8
  %128 = getelementptr inbounds nuw %struct.SDL_PixelFormatDetails, ptr %127, i32 0, i32 14
  %129 = load i8, ptr %128, align 2
  %130 = zext i8 %129 to i32
  %131 = shl i32 %126, %130
  %132 = or i32 %119, %131
  %133 = load i32, ptr %16, align 4
  %134 = load ptr, ptr %10, align 8
  %135 = getelementptr inbounds nuw %struct.SDL_PixelFormatDetails, ptr %134, i32 0, i32 11
  %136 = load i8, ptr %135, align 1
  %137 = zext i8 %136 to i32
  %138 = sub nsw i32 8, %137
  %139 = lshr i32 %133, %138
  %140 = load ptr, ptr %10, align 8
  %141 = getelementptr inbounds nuw %struct.SDL_PixelFormatDetails, ptr %140, i32 0, i32 15
  %142 = load i8, ptr %141, align 1
  %143 = zext i8 %142 to i32
  %144 = shl i32 %139, %143
  %145 = or i32 %132, %144
  %146 = load ptr, ptr %6, align 8
  store i32 %145, ptr %146, align 4
  %147 = load ptr, ptr %6, align 8
  %148 = getelementptr inbounds nuw i32, ptr %147, i32 1
  store ptr %148, ptr %6, align 8
  call void @llvm.lifetime.end.p0(i64 4, ptr %17) #8
  call void @llvm.lifetime.end.p0(i64 4, ptr %16) #8
  call void @llvm.lifetime.end.p0(i64 4, ptr %15) #8
  call void @llvm.lifetime.end.p0(i64 4, ptr %14) #8
  call void @llvm.lifetime.end.p0(i64 4, ptr %13) #8
  br label %149

149:                                              ; preds = %23
  %150 = load i32, ptr %11, align 4
  %151 = add nsw i32 %150, 1
  store i32 %151, ptr %11, align 4
  br label %19, !llvm.loop !81

152:                                              ; preds = %19
  %153 = load i32, ptr %8, align 4
  %154 = mul nsw i32 %153, 4
  call void @llvm.lifetime.end.p0(i64 8, ptr %12) #8
  call void @llvm.lifetime.end.p0(i64 4, ptr %11) #8
  ret i32 %154
}