; Function Attrs: nofree norecurse nosync nounwind memory(read, argmem: readwrite, inaccessiblemem: none) uwtable
define internal range(i32 -2147483648, 2147483645) i32 @uncopy_transl_16(ptr noundef writeonly captures(none) %0, ptr noundef readonly captures(none) %1, i32 noundef %2, ptr noundef readonly captures(none) %3, ptr noundef readonly captures(none) %4) unnamed_addr #6 {
  %6 = icmp sgt i32 %2, 0
  br i1 %6, label %.lr.ph, label %._crit_edge

.lr.ph:                                           ; preds = %5
  %7 = getelementptr inbounds nuw i8, ptr %3, i64 24
  %8 = getelementptr inbounds nuw i8, ptr %3, i64 8
  %9 = getelementptr inbounds nuw i8, ptr %3, i64 28
  %10 = getelementptr inbounds nuw i8, ptr %3, i64 25
  %11 = getelementptr inbounds nuw i8, ptr %3, i64 12
  %12 = getelementptr inbounds nuw i8, ptr %3, i64 29
  %13 = getelementptr inbounds nuw i8, ptr %3, i64 26
  %14 = getelementptr inbounds nuw i8, ptr %3, i64 16
  %15 = getelementptr inbounds nuw i8, ptr %3, i64 30
  %16 = getelementptr inbounds nuw i8, ptr %4, i64 24
  %17 = getelementptr inbounds nuw i8, ptr %4, i64 28
  %18 = getelementptr inbounds nuw i8, ptr %4, i64 25
  %19 = getelementptr inbounds nuw i8, ptr %4, i64 29
  %20 = getelementptr inbounds nuw i8, ptr %4, i64 26
  %21 = getelementptr inbounds nuw i8, ptr %4, i64 30
  %22 = getelementptr inbounds nuw i8, ptr %4, i64 27
  %23 = getelementptr inbounds nuw i8, ptr %4, i64 31
  br label %24

24:                                               ; preds = %.lr.ph, %24
  %.039 = phi ptr [ %0, %.lr.ph ], [ %102, %24 ]
  %.03438 = phi i32 [ 0, %.lr.ph ], [ %103, %24 ]
  %.03537 = phi ptr [ %1, %.lr.ph ], [ %25, %24 ]
  %25 = getelementptr inbounds nuw i8, ptr %.03537, i64 4
  %26 = load i32, ptr %.03537, align 4
  %27 = lshr i32 %26, 2
  %28 = and i32 %27, 248
  %29 = and i32 %26, -993
  %30 = lshr i32 %26, 16
  %31 = or i32 %29, %30
  %32 = load i8, ptr %7, align 4
  %33 = zext i8 %32 to i64
  %34 = getelementptr inbounds nuw [9 x ptr], ptr @SDL_expand_byte, i64 0, i64 %33
  %35 = load ptr, ptr %34, align 8
  %36 = load i32, ptr %8, align 4
  %37 = and i32 %36, %31
  %38 = load i8, ptr %9, align 4
  %39 = zext nneg i8 %38 to i32
  %40 = lshr i32 %37, %39
  %41 = zext i32 %40 to i64
  %42 = getelementptr inbounds nuw i8, ptr %35, i64 %41
  %43 = load i8, ptr %42, align 1
  %44 = zext i8 %43 to i32
  %45 = load i8, ptr %10, align 1
  %46 = zext i8 %45 to i64
  %47 = getelementptr inbounds nuw [9 x ptr], ptr @SDL_expand_byte, i64 0, i64 %46
  %48 = load ptr, ptr %47, align 8
  %49 = load i32, ptr %11, align 4
  %50 = and i32 %49, %31
  %51 = load i8, ptr %12, align 1
  %52 = zext nneg i8 %51 to i32
  %53 = lshr i32 %50, %52
  %54 = zext i32 %53 to i64
  %55 = getelementptr inbounds nuw i8, ptr %48, i64 %54
  %56 = load i8, ptr %55, align 1
  %57 = zext i8 %56 to i32
  %58 = load i8, ptr %13, align 2
  %59 = zext i8 %58 to i64
  %60 = getelementptr inbounds nuw [9 x ptr], ptr @SDL_expand_byte, i64 0, i64 %59
  %61 = load ptr, ptr %60, align 8
  %62 = load i32, ptr %14, align 4
  %63 = and i32 %62, %31
  %64 = load i8, ptr %15, align 2
  %65 = zext nneg i8 %64 to i32
  %66 = lshr i32 %63, %65
  %67 = zext i32 %66 to i64
  %68 = getelementptr inbounds nuw i8, ptr %61, i64 %67
  %69 = load i8, ptr %68, align 1
  %70 = zext i8 %69 to i32
  %71 = load i8, ptr %16, align 4
  %72 = zext i8 %71 to i32
  %73 = sub nsw i32 8, %72
  %74 = lshr i32 %44, %73
  %75 = load i8, ptr %17, align 4
  %76 = zext nneg i8 %75 to i32
  %77 = shl i32 %74, %76
  %78 = load i8, ptr %18, align 1
  %79 = zext i8 %78 to i32
  %80 = sub nsw i32 8, %79
  %81 = lshr i32 %57, %80
  %82 = load i8, ptr %19, align 1
  %83 = zext nneg i8 %82 to i32
  %84 = shl i32 %81, %83
  %85 = or i32 %84, %77
  %86 = load i8, ptr %20, align 2
  %87 = zext i8 %86 to i32
  %88 = sub nsw i32 8, %87
  %89 = lshr i32 %70, %88
  %90 = load i8, ptr %21, align 2
  %91 = zext nneg i8 %90 to i32
  %92 = shl i32 %89, %91
  %93 = or i32 %85, %92
  %94 = load i8, ptr %22, align 1
  %95 = zext i8 %94 to i32
  %96 = sub nsw i32 8, %95
  %97 = lshr i32 %28, %96
  %98 = load i8, ptr %23, align 1
  %99 = zext nneg i8 %98 to i32
  %100 = shl i32 %97, %99
  %101 = or i32 %93, %100
  store i32 %101, ptr %.039, align 4
  %102 = getelementptr inbounds nuw i8, ptr %.039, i64 4
  %103 = add nuw nsw i32 %.03438, 1
  %exitcond.not = icmp eq i32 %103, %2
  br i1 %exitcond.not, label %._crit_edge, label %24, !llvm.loop !83

._crit_edge:                                      ; preds = %24, %5
  %104 = shl nsw i32 %2, 2
  ret i32 %104
}